target datalayout = "e-m:e-p270:32:32-p271:32:32-p272:64:64-i64:64-i128:128-f80:128-n8:16:32:64-S128"
target triple = "x86_64-pc-linux-gnu"

%struct.AVFormatContext = type { ptr, ptr, ptr, ptr, ptr, i32, i32, ptr, i32, ptr, i32, ptr, ptr, i64, i64, i64, i32, i32, i32, i64, i64, ptr, i32, i32, ptr, i32, i32, i32, i32, ptr, i64, i32, i32, %struct.AVIOInterruptCB, i32, i32, i32, i32, i64, i32, i32, i32, i32, i32, i32, i32, i32, i32, i32, i32, i32, i64, i32, i32, i32, i32, i32, ptr, ptr, ptr, ptr, i32, ptr, ptr, ptr, ptr, i32, ptr, ptr, i64, ptr, ptr, ptr, i64 }
%struct.AVIOInterruptCB = type { ptr, ptr }
%struct.ogg = type { ptr, i32, i32, i32, i64, ptr }
%struct.ogg_stream = type { ptr, i32, i32, i32, i32, i32, i32, i32, i64, i64, i64, i64, i64, i64, i32, ptr, i32, i32, i32, [255 x i8], i32, i32, i32, i32, i32, i32, i32, i32, ptr, i64, ptr }
%struct.oggopus_private = type { i32, i32, i64 }

@.str.2 = private unnamed_addr constant [9 x i8] c"OpusTags\00", align 1

; Function Attrs: nounwind uwtable
define internal i32 @opus_header(ptr noundef %0, i32 noundef %1) #0 {
  %3 = alloca i32, align 4
  %4 = alloca ptr, align 8
  %5 = alloca i32, align 4
  %6 = alloca ptr, align 8
  %7 = alloca ptr, align 8
  %8 = alloca ptr, align 8
  %9 = alloca ptr, align 8
  %10 = alloca ptr, align 8
  %11 = alloca i32, align 4
  store ptr %0, ptr %4, align 8, !tbaa !4
  store i32 %1, ptr %5, align 4, !tbaa !9
  call void @llvm.lifetime.start.p0(i64 8, ptr %6) #6
  %12 = load ptr, ptr %4, align 8, !tbaa !4
  %13 = getelementptr inbounds nuw %struct.AVFormatContext, ptr %12, i32 0, i32 3
  %14 = load ptr, ptr %13, align 8, !tbaa !11
  store ptr %14, ptr %6, align 8, !tbaa !27
  call void @llvm.lifetime.start.p0(i64 8, ptr %7) #6
  %15 = load ptr, ptr %6, align 8, !tbaa !27
  %16 = getelementptr inbounds nuw %struct.ogg, ptr %15, i32 0, i32 0
  %17 = load ptr, ptr %16, align 8, !tbaa !29
  %18 = load i32, ptr %5, align 4, !tbaa !9
  %19 = sext i32 %18 to i64
  %20 = getelementptr inbounds %struct.ogg_stream, ptr %17, i64 %19
  store ptr %20, ptr %7, align 8, !tbaa !33
  call void @llvm.lifetime.start.p0(i64 8, ptr %8) #6
  %21 = load ptr, ptr %4, align 8, !tbaa !4
  %22 = getelementptr inbounds nuw %struct.AVFormatContext, ptr %21, i32 0, i32 7
  %23 = load ptr, ptr %22, align 8, !tbaa !34
  %24 = load i32, ptr %5, align 4, !tbaa !9
  %25 = sext i32 %24 to i64
  %26 = getelementptr inbounds ptr, ptr %23, i64 %25
  %27 = load ptr, ptr %26, align 8, !tbaa !35
  store ptr %27, ptr %8, align 8, !tbaa !35
  call void @llvm.lifetime.start.p0(i64 8, ptr %9) #6
  %28 = load ptr, ptr %7, align 8, !tbaa !33
  %29 = getelementptr inbounds nuw %struct.ogg_stream, ptr %28, i32 0, i32 30
  %30 = load ptr, ptr %29, align 8, !tbaa !37
  store ptr %30, ptr %9, align 8, !tbaa !40
  call void @llvm.lifetime.start.p0(i64 8, ptr %10) #6
  %31 = load ptr, ptr %7, align 8, !tbaa !33
  %32 = getelementptr inbounds nuw %struct.ogg_stream, ptr %31, i32 0, i32 0
  %33 = load ptr, ptr %32, align 8, !tbaa !42
  %34 = load ptr, ptr %7, align 8, !tbaa !33
  %35 = getelementptr inbounds nuw %struct.ogg_stream, ptr %34, i32 0, i32 3
  %36 = load i32, ptr %35, align 8, !tbaa !43
  %37 = zext i32 %36 to i64
  %38 = getelementptr inbounds nuw i8, ptr %33, i64 %37
  store ptr %38, ptr %10, align 8, !tbaa !44
  %39 = load ptr, ptr %9, align 8, !tbaa !40
  %40 = icmp ne ptr %39, null
  br i1 %40, label %49, label %41

41:                                               ; preds = %2
  %42 = call noalias ptr @av_mallocz(i64 noundef 16)
  %43 = load ptr, ptr %7, align 8, !tbaa !33
  %44 = getelementptr inbounds nuw %struct.ogg_stream, ptr %43, i32 0, i32 30
  store ptr %42, ptr %44, align 8, !tbaa !37
  store ptr %42, ptr %9, align 8, !tbaa !40
  %45 = load ptr, ptr %9, align 8, !tbaa !40
  %46 = icmp ne ptr %45, null
  br i1 %46, label %48, label %47

47:                                               ; preds = %41
  store i32 -12, ptr %3, align 4
  store i32 1, ptr %11, align 4
  br label %96

48:                                               ; preds = %41
  br label %49

49:                                               ; preds = %48, %2
  %50 = load ptr, ptr %7, align 8, !tbaa !33
  %51 = getelementptr inbounds nuw %struct.ogg_stream, ptr %50, i32 0, i32 14
  %52 = load i32, ptr %51, align 8, !tbaa !45
  %53 = and i32 %52, 2
  %54 = icmp ne i32 %53, 0
  br i1 %54, label %55, label %66

55:                                               ; preds = %49
  %56 = load ptr, ptr %4, align 8, !tbaa !4
  %57 = load ptr, ptr %8, align 8, !tbaa !35
  %58 = load ptr, ptr %7, align 8, !tbaa !33
  %59 = load ptr, ptr %9, align 8, !tbaa !40
  %60 = load ptr, ptr %10, align 8, !tbaa !44
  %61 = load ptr, ptr %7, align 8, !tbaa !33
  %62 = getelementptr inbounds nuw %struct.ogg_stream, ptr %61, i32 0, i32 4
  %63 = load i32, ptr %62, align 4, !tbaa !46
  %64 = zext i32 %63 to i64
  %65 = call i32 @parse_opus_header(ptr noundef %56, ptr noundef %57, ptr noundef %58, ptr noundef %59, ptr noundef %60, i64 noundef %64)
  store i32 %65, ptr %3, align 4
  store i32 1, ptr %11, align 4
  br label %96

66:                                               ; preds = %49
  %67 = load ptr, ptr %9, align 8, !tbaa !40
  %68 = getelementptr inbounds nuw %struct.oggopus_private, ptr %67, i32 0, i32 0
  %69 = load i32, ptr %68, align 8, !tbaa !47
  %70 = icmp ne i32 %69, 0
  br i1 %70, label %71, label %95

71:                                               ; preds = %66
  %72 = load ptr, ptr %7, align 8, !tbaa !33
  %73 = getelementptr inbounds nuw %struct.ogg_stream, ptr %72, i32 0, i32 4
  %74 = load i32, ptr %73, align 4, !tbaa !46
  %75 = icmp ult i32 %74, 8
  br i1 %75, label %80, label %76

76:                                               ; preds = %71
  %77 = load ptr, ptr %10, align 8, !tbaa !44
  %78 = call i32 @memcmp(ptr noundef %77, ptr noundef @.str.2, i64 noundef 8) #7
  %79 = icmp ne i32 %78, 0
  br i1 %79, label %80, label %81

80:                                               ; preds = %76, %71
  store i32 -1094995529, ptr %3, align 4
  store i32 1, ptr %11, align 4
  br label %96

81:                                               ; preds = %76
  %82 = load ptr, ptr %4, align 8, !tbaa !4
  %83 = load ptr, ptr %8, align 8, !tbaa !35
  %84 = load ptr, ptr %10, align 8, !tbaa !44
  %85 = getelementptr inbounds i8, ptr %84, i64 8
  %86 = load ptr, ptr %7, align 8, !tbaa !33
  %87 = getelementptr inbounds nuw %struct.ogg_stream, ptr %86, i32 0, i32 4
  %88 = load i32, ptr %87, align 4, !tbaa !46
  %89 = sub i32 %88, 8
  %90 = call i32 @ff_vorbis_stream_comment(ptr noundef %82, ptr noundef %83, ptr noundef %85, i32 noundef %89)
  %91 = load ptr, ptr %9, align 8, !tbaa !40
  %92 = getelementptr inbounds nuw %struct.oggopus_private, ptr %91, i32 0, i32 0
  %93 = load i32, ptr %92, align 8, !tbaa !47
  %94 = add nsw i32 %93, -1
  store i32 %94, ptr %92, align 8, !tbaa !47
  store i32 1, ptr %3, align 4
  store i32 1, ptr %11, align 4
  br label %96

95:                                               ; preds = %66
  store i32 0, ptr %3, align 4
  store i32 1, ptr %11, align 4
  br label %96

96:                                               ; preds = %95, %81, %80, %55, %47
  call void @llvm.lifetime.end.p0(i64 8, ptr %10) #6
  call void @llvm.lifetime.end.p0(i64 8, ptr %9) #6
  call void @llvm.lifetime.end.p0(i64 8, ptr %8) #6
  call void @llvm.lifetime.end.p0(i64 8, ptr %7) #6
  call void @llvm.lifetime.end.p0(i64 8, ptr %6) #6
  %97 = load i32, ptr %3, align 4
  ret i32 %97
}