; Function Attrs: nounwind uwtable
define internal range(i32 -2147483648, 2) i32 @opus_header(ptr noundef %0, i32 noundef %1) #0 {
  %3 = getelementptr inbounds nuw i8, ptr %0, i64 24
  %4 = load ptr, ptr %3, align 8, !tbaa !4
  %5 = load ptr, ptr %4, align 8, !tbaa !24
  %6 = sext i32 %1 to i64
  %7 = getelementptr inbounds %struct.ogg_stream, ptr %5, i64 %6
  %8 = getelementptr inbounds nuw i8, ptr %0, i64 48
  %9 = load ptr, ptr %8, align 8, !tbaa !28
  %10 = getelementptr inbounds ptr, ptr %9, i64 %6
  %11 = load ptr, ptr %10, align 8, !tbaa !29
  %12 = getelementptr inbounds nuw i8, ptr %7, i64 424
  %13 = load ptr, ptr %12, align 8, !tbaa !31
  %14 = load ptr, ptr %7, align 8, !tbaa !34
  %15 = getelementptr inbounds nuw i8, ptr %7, i64 16
  %16 = load i32, ptr %15, align 8, !tbaa !35
  %17 = zext i32 %16 to i64
  %18 = getelementptr inbounds nuw i8, ptr %14, i64 %17
  %.not = icmp eq ptr %13, null
  br i1 %.not, label %19, label %21

19:                                               ; preds = %2
  %20 = tail call noalias ptr @av_mallocz(i64 noundef 16) #6
  store ptr %20, ptr %12, align 8, !tbaa !31
  %.not30 = icmp eq ptr %20, null
  br i1 %.not30, label %43, label %21

21:                                               ; preds = %19, %2
  %.026 = phi ptr [ %13, %2 ], [ %20, %19 ]
  %22 = getelementptr inbounds nuw i8, ptr %7, i64 88
  %23 = load i32, ptr %22, align 8, !tbaa !36
  %24 = and i32 %23, 2
  %.not31 = icmp eq i32 %24, 0
  br i1 %.not31, label %30, label %25

25:                                               ; preds = %21
  %26 = getelementptr inbounds nuw i8, ptr %7, i64 20
  %27 = load i32, ptr %26, align 4, !tbaa !37
  %28 = zext i32 %27 to i64
  %29 = tail call fastcc i32 @parse_opus_header(ptr noundef nonnull %0, ptr noundef %11, ptr noundef nonnull %7, ptr noundef nonnull %.026, ptr noundef %18, i64 noundef %28)
  br label %43

30:                                               ; preds = %21
  %31 = load i32, ptr %.026, align 8, !tbaa !38
  %.not32 = icmp eq i32 %31, 0
  br i1 %.not32, label %43, label %32

32:                                               ; preds = %30
  %33 = getelementptr inbounds nuw i8, ptr %7, i64 20
  %34 = load i32, ptr %33, align 4, !tbaa !37
  %35 = icmp ult i32 %34, 8
  br i1 %35, label %43, label %36

36:                                               ; preds = %32
  %bcmp = tail call i32 @bcmp(ptr noundef nonnull dereferenceable(8) %18, ptr noundef nonnull dereferenceable(8) @.str.2, i64 8)
  %.not33 = icmp eq i32 %bcmp, 0
  br i1 %.not33, label %37, label %43

37:                                               ; preds = %36
  %38 = getelementptr inbounds nuw i8, ptr %18, i64 8
  %39 = add i32 %34, -8
  %40 = tail call i32 @ff_vorbis_stream_comment(ptr noundef nonnull %0, ptr noundef %11, ptr noundef nonnull %38, i32 noundef %39) #6
  %41 = load i32, ptr %.026, align 8, !tbaa !38
  %42 = add nsw i32 %41, -1
  store i32 %42, ptr %.026, align 8, !tbaa !38
  br label %43

43:                                               ; preds = %30, %32, %36, %19, %37, %25
  %.0 = phi i32 [ %29, %25 ], [ 1, %37 ], [ -12, %19 ], [ -1094995529, %36 ], [ -1094995529, %32 ], [ 0, %30 ]
  ret i32 %.0
}